target datalayout = "e-m:e-p270:32:32-p271:32:32-p272:64:64-i64:64-i128:128-f80:128-n8:16:32:64-S128"
target triple = "x86_64-pc-linux-gnu"

%struct.tng_trajectory = type { ptr, ptr, i64, ptr, ptr, ptr, ptr, ptr, ptr, i8, i8, ptr, ptr, ptr, ptr, ptr, ptr, ptr, ptr, ptr, i64, i64, i8, i64, i64, i64, double, i64, ptr, ptr, i64, i64, i64, i64, i64, %struct.tng_trajectory_frame_set, i64, i64, i64, i32, ptr, i32, ptr, ptr, ptr, double }
%struct.tng_trajectory_frame_set = type { i64, ptr, i64, i64, i64, i64, ptr, i64, i64, i64, i64, i64, i64, i64, double, i32, ptr, i32, ptr }

; Function Attrs: nounwind uwtable
define i32 @tng_util_prepare_append_after_frame(ptr noundef %0, i64 noundef %1) #0 {
  %3 = alloca i32, align 4
  %4 = alloca ptr, align 8
  %5 = alloca i64, align 8
  %6 = alloca i32, align 4
  %7 = alloca ptr, align 8
  %8 = alloca i32, align 4
  store ptr %0, ptr %4, align 8, !tbaa !3
  store i64 %1, ptr %5, align 8, !tbaa !26
  call void @llvm.lifetime.start.p0(i64 4, ptr %6) #11
  call void @llvm.lifetime.start.p0(i64 8, ptr %7) #11
  %9 = load ptr, ptr %4, align 8, !tbaa !3
  %10 = getelementptr inbounds nuw %struct.tng_trajectory, ptr %9, i32 0, i32 1
  %11 = load ptr, ptr %10, align 8, !tbaa !136
  store ptr %11, ptr %7, align 8, !tbaa !24
  %12 = load ptr, ptr %4, align 8, !tbaa !3
  %13 = getelementptr inbounds nuw %struct.tng_trajectory, ptr %12, i32 0, i32 4
  %14 = load ptr, ptr %13, align 8, !tbaa !139
  %15 = load ptr, ptr %4, align 8, !tbaa !3
  %16 = getelementptr inbounds nuw %struct.tng_trajectory, ptr %15, i32 0, i32 1
  store ptr %14, ptr %16, align 8, !tbaa !136
  %17 = load ptr, ptr %4, align 8, !tbaa !3
  %18 = load i64, ptr %5, align 8, !tbaa !26
  %19 = call i32 @tng_frame_set_of_frame_find(ptr noundef %17, i64 noundef %18)
  store i32 %19, ptr %6, align 4, !tbaa !20
  %20 = load i32, ptr %6, align 4, !tbaa !20
  %21 = icmp ne i32 %20, 0
  br i1 %21, label %22, label %24

22:                                               ; preds = %2
  %23 = load i32, ptr %6, align 4, !tbaa !20
  store i32 %23, ptr %3, align 4
  store i32 1, ptr %8, align 4
  br label %33

24:                                               ; preds = %2
  %25 = load ptr, ptr %4, align 8, !tbaa !3
  %26 = getelementptr inbounds nuw %struct.tng_trajectory, ptr %25, i32 0, i32 36
  %27 = load i64, ptr %26, align 8, !tbaa !152
  %28 = load ptr, ptr %4, align 8, !tbaa !3
  %29 = getelementptr inbounds nuw %struct.tng_trajectory, ptr %28, i32 0, i32 37
  store i64 %27, ptr %29, align 8, !tbaa !155
  %30 = load ptr, ptr %7, align 8, !tbaa !24
  %31 = load ptr, ptr %4, align 8, !tbaa !3
  %32 = getelementptr inbounds nuw %struct.tng_trajectory, ptr %31, i32 0, i32 1
  store ptr %30, ptr %32, align 8, !tbaa !136
  store i32 0, ptr %3, align 4
  store i32 1, ptr %8, align 4
  br label %33

33:                                               ; preds = %24, %22
  call void @llvm.lifetime.end.p0(i64 8, ptr %7) #11
  call void @llvm.lifetime.end.p0(i64 4, ptr %6) #11
  %34 = load i32, ptr %3, align 4
  ret i32 %34
}