; Function Attrs: nounwind uwtable
define range(i32 0, 3) i32 @tng_util_prepare_append_after_frame(ptr noundef %0, i64 noundef %1) local_unnamed_addr #4 {
  %3 = getelementptr inbounds nuw i8, ptr %0, i64 8
  %4 = load ptr, ptr %3, align 8, !tbaa !137
  %5 = getelementptr inbounds nuw i8, ptr %0, i64 32
  %6 = load ptr, ptr %5, align 8, !tbaa !138
  store ptr %6, ptr %3, align 8, !tbaa !137
  %7 = tail call i32 @tng_frame_set_of_frame_find(ptr noundef %0, i64 noundef %1)
  %.not = icmp eq i32 %7, 0
  br i1 %.not, label %8, label %12

8:                                                ; preds = %2
  %9 = getelementptr inbounds nuw i8, ptr %0, i64 424
  %10 = load i64, ptr %9, align 8, !tbaa !194
  %11 = getelementptr inbounds nuw i8, ptr %0, i64 432
  store i64 %10, ptr %11, align 8, !tbaa !186
  store ptr %4, ptr %3, align 8, !tbaa !137
  br label %12

12:                                               ; preds = %2, %8
  ret i32 %7
}